(lp0
(lp1
Vbloomberg
p2
aVnews
p3
aVbloomberg professional
p4
aVprofessional service
p5
aa(lp6
Vsoftware
p7
aVdata
p8
aVexperience
p9
aVdevelopment
p10
aa(lp11
Vdays
p12
aVvar
p13
ag8
aVago
p14
aa(lp15
g8
ag10
ag7
ag9
aa(lp16
g8
aVsan
p17
ag12
aVfrancisco
p18
aa(lp19
g7
aVaround
p20
aVteam
p21
aVworld
p22
aa(lp23
g21
aVwork
p24
ag9
aVnew
p25
aa(lp26
Vcoolblue
p27
aVrotterdam
p28
aVlast
p29
aVshops
p30
aa(lp31
Vhealth
p32
ag24
aVweb
p33
ag7
aa.