(lp0
(lp1
Vrealtime smrt
p2
aVestimatesresponsible full development
p3
aVrealtime pipeline processing
p4
aVcool excited
p5
aa(lp6
Vdat er een
p7
aVexperience associates degree
p8
aVteam designs develops
p9
aVdevelopment applied
p10
aa(lp11
Vsoftware development encouraged
p12
ag8
ag7
ag10
aa(lp13
Vtesting able handle
p14
ag12
ag9
ag10
aa(lp15
Vdays agointern vrdma
p16
aVagile teams
p17
aVdays agoinvestigative
p18
aVsatisfied things way
p19
aa(lp20
Vblog posts
p21
aVnice views
p22
aVblogs
p23
aVprofilemigrating storage layer
p24
aa(lp25
Vhealth workers
p26
aVcard exchange
p27
aVhear youproviding feedback
p28
ag9
aa(lp29
Vcamunda jbpm
p30
aVresearch technology
p31
aVone brings
p32
aVcanada nous
p33
aa(lp34
Vvendor progress technical
p35
aVwant hear youyou
p36
aVotherssubjective criteriaexcellent communication
p37
aVideal candidate solid
p38
aa.